; ModuleID = '41/65.cpp'
source_filename = "41/65.cpp"
target datalayout = "e-m:e-p270:32:32-p271:32:32-p272:64:64-i64:64-f80:128-n8:16:32:64-S128"
target triple = "x86_64-pc-linux-gnu"

%"class.std::ios_base::Init" = type { i8 }
%"class.std::basic_ostream" = type { i32 (...)**, %"class.std::basic_ios" }
%"class.std::basic_ios" = type { %"class.std::ios_base", %"class.std::basic_ostream"*, i8, i8, %"class.std::basic_streambuf"*, %"class.std::ctype"*, %"class.std::num_put"*, %"class.std::num_get"* }
%"class.std::ios_base" = type { i32 (...)**, i64, i64, i32, i32, i32, %"struct.std::ios_base::_Callback_list"*, %"struct.std::ios_base::_Words", [8 x %"struct.std::ios_base::_Words"], i32, %"struct.std::ios_base::_Words"*, %"class.std::locale" }
%"struct.std::ios_base::_Callback_list" = type { %"struct.std::ios_base::_Callback_list"*, void (i32, %"class.std::ios_base"*, i32)*, i32, i32 }
%"struct.std::ios_base::_Words" = type { i8*, i64 }
%"class.std::locale" = type { %"class.std::locale::_Impl"* }
%"class.std::locale::_Impl" = type { i32, %"class.std::locale::facet"**, i64, %"class.std::locale::facet"**, i8** }
%"class.std::locale::facet" = type <{ i32 (...)**, i32, [4 x i8] }>
%"class.std::basic_streambuf" = type { i32 (...)**, i8*, i8*, i8*, i8*, i8*, i8*, %"class.std::locale" }
%"class.std::ctype" = type <{ %"class.std::locale::facet.base", [4 x i8], %struct.__locale_struct*, i8, [7 x i8], i32*, i32*, i16*, i8, [256 x i8], [256 x i8], i8, [6 x i8] }>
%"class.std::locale::facet.base" = type <{ i32 (...)**, i32 }>
%struct.__locale_struct = type { [13 x %struct.__locale_data*], i16*, i32*, i32*, [13 x i8*] }
%struct.__locale_data = type opaque
%"class.std::num_put" = type { %"class.std::locale::facet.base", [4 x i8] }
%"class.std::num_get" = type { %"class.std::locale::facet.base", [4 x i8] }

@_ZStL8__ioinit = internal global %"class.std::ios_base::Init" zeroinitializer, align 1
@__dso_handle = external hidden global i8
@_ZSt4cout = external dso_local global %"class.std::basic_ostream", align 8
@.str = private unnamed_addr constant [2 x i8] c" \00", align 1
@llvm.global_ctors = appending global [1 x { i32, void ()*, i8* }] [{ i32, void ()*, i8* } { i32 65535, void ()* @_GLOBAL__sub_I_65.cpp, i8* null }]

; Function Attrs: noinline uwtable
define internal void @__cxx_global_var_init() #0 section ".text.startup" {
  call void @_ZNSt8ios_base4InitC1Ev(%"class.std::ios_base::Init"* @_ZStL8__ioinit)
  %1 = call i32 @__cxa_atexit(void (i8*)* bitcast (void (%"class.std::ios_base::Init"*)* @_ZNSt8ios_base4InitD1Ev to void (i8*)*), i8* getelementptr inbounds (%"class.std::ios_base::Init", %"class.std::ios_base::Init"* @_ZStL8__ioinit, i32 0, i32 0), i8* @__dso_handle) #3
  ret void
}

declare dso_local void @_ZNSt8ios_base4InitC1Ev(%"class.std::ios_base::Init"*) unnamed_addr #1

; Function Attrs: nounwind
declare dso_local void @_ZNSt8ios_base4InitD1Ev(%"class.std::ios_base::Init"*) unnamed_addr #2

; Function Attrs: nounwind
declare dso_local i32 @__cxa_atexit(void (i8*)*, i8*, i8*) #3

; Function Attrs: noinline norecurse uwtable
define dso_local i32 @main() #4 {
  %1 = alloca i32, align 4
  %2 = alloca i32, align 4
  %3 = alloca i32, align 4
  %4 = alloca i32, align 4
  %5 = alloca i32, align 4
  %6 = alloca i32, align 4
  %7 = alloca [6 x i32], align 16
  store i32 0, i32* %1, align 4
  store i32 1, i32* %2, align 4
  br label %8

8:                                                ; preds = %155, %0
  %9 = load i32, i32* %2, align 4
  %10 = icmp sle i32 %9, 5
  br i1 %10, label %11, label %158

11:                                               ; preds = %8
  store i32 1, i32* %3, align 4
  br label %12

12:                                               ; preds = %151, %11
  %13 = load i32, i32* %3, align 4
  %14 = icmp sle i32 %13, 5
  br i1 %14, label %15, label %154

15:                                               ; preds = %12
  store i32 1, i32* %4, align 4
  br label %16

16:                                               ; preds = %147, %15
  %17 = load i32, i32* %4, align 4
  %18 = icmp sle i32 %17, 5
  br i1 %18, label %19, label %150

19:                                               ; preds = %16
  store i32 1, i32* %5, align 4
  br label %20

20:                                               ; preds = %143, %19
  %21 = load i32, i32* %5, align 4
  %22 = icmp sle i32 %21, 5
  br i1 %22, label %23, label %146

23:                                               ; preds = %20
  store i32 1, i32* %6, align 4
  br label %24

24:                                               ; preds = %139, %23
  %25 = load i32, i32* %6, align 4
  %26 = icmp sle i32 %25, 5
  br i1 %26, label %27, label %142

27:                                               ; preds = %24
  %28 = load i32, i32* %6, align 4
  %29 = icmp eq i32 %28, 1
  %30 = zext i1 %29 to i32
  %31 = load i32, i32* %3, align 4
  %32 = icmp eq i32 %31, 2
  %33 = zext i1 %32 to i32
  %34 = add nsw i32 %30, %33
  %35 = load i32, i32* %2, align 4
  %36 = icmp eq i32 %35, 5
  %37 = zext i1 %36 to i32
  %38 = add nsw i32 %34, %37
  %39 = load i32, i32* %4, align 4
  %40 = icmp ne i32 %39, 5
  %41 = zext i1 %40 to i32
  %42 = add nsw i32 %38, %41
  %43 = load i32, i32* %5, align 4
  %44 = icmp eq i32 %43, 1
  %45 = zext i1 %44 to i32
  %46 = add nsw i32 %42, %45
  %47 = icmp eq i32 %46, 2
  br i1 %47, label %48, label %138

48:                                               ; preds = %27
  %49 = load i32, i32* %2, align 4
  %50 = load i32, i32* %3, align 4
  %51 = add nsw i32 %49, %50
  %52 = load i32, i32* %4, align 4
  %53 = add nsw i32 %51, %52
  %54 = load i32, i32* %5, align 4
  %55 = add nsw i32 %53, %54
  %56 = load i32, i32* %6, align 4
  %57 = add nsw i32 %55, %56
  %58 = icmp eq i32 %57, 15
  br i1 %58, label %59, label %138

59:                                               ; preds = %48
  %60 = load i32, i32* %2, align 4
  %61 = load i32, i32* %5, align 4
  %62 = icmp ne i32 %60, %61
  br i1 %62, label %63, label %138

63:                                               ; preds = %59
  %64 = load i32, i32* %3, align 4
  %65 = load i32, i32* %4, align 4
  %66 = icmp ne i32 %64, %65
  br i1 %66, label %67, label %138

67:                                               ; preds = %63
  %68 = load i32, i32* %2, align 4
  %69 = load i32, i32* %3, align 4
  %70 = icmp ne i32 %68, %69
  br i1 %70, label %71, label %138

71:                                               ; preds = %67
  %72 = load i32, i32* %4, align 4
  %73 = load i32, i32* %6, align 4
  %74 = icmp ne i32 %72, %73
  br i1 %74, label %75, label %138

75:                                               ; preds = %71
  %76 = load i32, i32* %2, align 4
  %77 = load i32, i32* %4, align 4
  %78 = icmp ne i32 %76, %77
  br i1 %78, label %79, label %138

79:                                               ; preds = %75
  %80 = load i32, i32* %6, align 4
  %81 = icmp eq i32 %80, 1
  %82 = zext i1 %81 to i32
  %83 = load i32, i32* %2, align 4
  %84 = sext i32 %83 to i64
  %85 = getelementptr inbounds [6 x i32], [6 x i32]* %7, i64 0, i64 %84
  store i32 %82, i32* %85, align 4
  %86 = load i32, i32* %3, align 4
  %87 = icmp eq i32 %86, 2
  %88 = zext i1 %87 to i32
  %89 = load i32, i32* %3, align 4
  %90 = sext i32 %89 to i64
  %91 = getelementptr inbounds [6 x i32], [6 x i32]* %7, i64 0, i64 %90
  store i32 %88, i32* %91, align 4
  %92 = load i32, i32* %2, align 4
  %93 = icmp eq i32 %92, 5
  %94 = zext i1 %93 to i32
  %95 = load i32, i32* %4, align 4
  %96 = sext i32 %95 to i64
  %97 = getelementptr inbounds [6 x i32], [6 x i32]* %7, i64 0, i64 %96
  store i32 %94, i32* %97, align 4
  %98 = load i32, i32* %4, align 4
  %99 = icmp ne i32 %98, 5
  %100 = zext i1 %99 to i32
  %101 = load i32, i32* %5, align 4
  %102 = sext i32 %101 to i64
  %103 = getelementptr inbounds [6 x i32], [6 x i32]* %7, i64 0, i64 %102
  store i32 %100, i32* %103, align 4
  %104 = load i32, i32* %5, align 4
  %105 = icmp eq i32 %104, 1
  %106 = zext i1 %105 to i32
  %107 = load i32, i32* %6, align 4
  %108 = sext i32 %107 to i64
  %109 = getelementptr inbounds [6 x i32], [6 x i32]* %7, i64 0, i64 %108
  store i32 %106, i32* %109, align 4
  %110 = getelementptr inbounds [6 x i32], [6 x i32]* %7, i64 0, i64 1
  %111 = load i32, i32* %110, align 4
  %112 = getelementptr inbounds [6 x i32], [6 x i32]* %7, i64 0, i64 2
  %113 = load i32, i32* %112, align 8
  %114 = add nsw i32 %111, %113
  %115 = icmp eq i32 %114, 2
  br i1 %115, label %116, label %137

116:                                              ; preds = %79
  %117 = load i32, i32* %6, align 4
  %118 = icmp ne i32 %117, 2
  br i1 %118, label %119, label %137

119:                                              ; preds = %116
  %120 = load i32, i32* %6, align 4
  %121 = icmp ne i32 %120, 3
  br i1 %121, label %122, label %137

122:                                              ; preds = %119
  %123 = load i32, i32* %2, align 4
  %124 = call dereferenceable(272) %"class.std::basic_ostream"* @_ZNSolsEi(%"class.std::basic_ostream"* @_ZSt4cout, i32 %123)
  %125 = call dereferenceable(272) %"class.std::basic_ostream"* @_ZStlsISt11char_traitsIcEERSt13basic_ostreamIcT_ES5_PKc(%"class.std::basic_ostream"* dereferenceable(272) %124, i8* getelementptr inbounds ([2 x i8], [2 x i8]* @.str, i64 0, i64 0))
  %126 = load i32, i32* %5, align 4
  %127 = call dereferenceable(272) %"class.std::basic_ostream"* @_ZNSolsEi(%"class.std::basic_ostream"* %125, i32 %126)
  %128 = call dereferenceable(272) %"class.std::basic_ostream"* @_ZStlsISt11char_traitsIcEERSt13basic_ostreamIcT_ES5_PKc(%"class.std::basic_ostream"* dereferenceable(272) %127, i8* getelementptr inbounds ([2 x i8], [2 x i8]* @.str, i64 0, i64 0))
  %129 = load i32, i32* %4, align 4
  %130 = call dereferenceable(272) %"class.std::basic_ostream"* @_ZNSolsEi(%"class.std::basic_ostream"* %128, i32 %129)
  %131 = call dereferenceable(272) %"class.std::basic_ostream"* @_ZStlsISt11char_traitsIcEERSt13basic_ostreamIcT_ES5_PKc(%"class.std::basic_ostream"* dereferenceable(272) %130, i8* getelementptr inbounds ([2 x i8], [2 x i8]* @.str, i64 0, i64 0))
  %132 = load i32, i32* %3, align 4
  %133 = call dereferenceable(272) %"class.std::basic_ostream"* @_ZNSolsEi(%"class.std::basic_ostream"* %131, i32 %132)
  %134 = call dereferenceable(272) %"class.std::basic_ostream"* @_ZStlsISt11char_traitsIcEERSt13basic_ostreamIcT_ES5_PKc(%"class.std::basic_ostream"* dereferenceable(272) %133, i8* getelementptr inbounds ([2 x i8], [2 x i8]* @.str, i64 0, i64 0))
  %135 = load i32, i32* %6, align 4
  %136 = call dereferenceable(272) %"class.std::basic_ostream"* @_ZNSolsEi(%"class.std::basic_ostream"* %134, i32 %135)
  br label %137

137:                                              ; preds = %122, %119, %116, %79
  br label %138

138:                                              ; preds = %137, %75, %71, %67, %63, %59, %48, %27
  br label %139

139:                                              ; preds = %138
  %140 = load i32, i32* %6, align 4
  %141 = add nsw i32 %140, 1
  store i32 %141, i32* %6, align 4
  br label %24

142:                                              ; preds = %24
  br label %143

143:                                              ; preds = %142
  %144 = load i32, i32* %5, align 4
  %145 = add nsw i32 %144, 1
  store i32 %145, i32* %5, align 4
  br label %20

146:                                              ; preds = %20
  br label %147

147:                                              ; preds = %146
  %148 = load i32, i32* %4, align 4
  %149 = add nsw i32 %148, 1
  store i32 %149, i32* %4, align 4
  br label %16

150:                                              ; preds = %16
  br label %151

151:                                              ; preds = %150
  %152 = load i32, i32* %3, align 4
  %153 = add nsw i32 %152, 1
  store i32 %153, i32* %3, align 4
  br label %12

154:                                              ; preds = %12
  br label %155

155:                                              ; preds = %154
  %156 = load i32, i32* %2, align 4
  %157 = add nsw i32 %156, 1
  store i32 %157, i32* %2, align 4
  br label %8

158:                                              ; preds = %8
  ret i32 0
}

declare dso_local dereferenceable(272) %"class.std::basic_ostream"* @_ZStlsISt11char_traitsIcEERSt13basic_ostreamIcT_ES5_PKc(%"class.std::basic_ostream"* dereferenceable(272), i8*) #1

declare dso_local dereferenceable(272) %"class.std::basic_ostream"* @_ZNSolsEi(%"class.std::basic_ostream"*, i32) #1

; Function Attrs: noinline uwtable
define internal void @_GLOBAL__sub_I_65.cpp() #0 section ".text.startup" {
  call void @__cxx_global_var_init()
  ret void
}


!llvm.module.flags = !{!0}
!llvm.ident = !{!1}

!0 = !{i32 1, !"wchar_size", i32 4}
!1 = !{!"clang version 10.0.0-4ubuntu1 "}
